; Function Attrs: mustprogress nounwind uwtable
define noundef zeroext i1 @_ZN6casadi7Options7has_dotERKSt3mapINSt7__cxx1112basic_stringIcSt11char_traitsIcESaIcEEENS_11GenericTypeESt4lessIS7_ESaISt4pairIKS7_S8_EEE(ptr noundef nonnull readonly align 8 dereferenceable(48) %0) local_unnamed_addr #3 align 2 personality ptr @__gxx_personality_v0 {
  %2 = getelementptr inbounds i8, ptr %0, i64 24
  %3 = load ptr, ptr %2, align 8
  %4 = getelementptr inbounds i8, ptr %0, i64 8
  %.not15 = icmp eq ptr %3, %4
  br i1 %.not15, label %._crit_edge, label %.lr.ph

.lr.ph:                                           ; preds = %1, %9
  %.sroa.07.010 = phi ptr [ %10, %9 ], [ %3, %1 ]
  %5 = getelementptr inbounds i8, ptr %.sroa.07.010, i64 32
  %6 = tail call noundef i64 @_ZNKSt7__cxx1112basic_stringIcSt11char_traitsIcESaIcEE4findEcm(ptr noundef nonnull align 8 dereferenceable(32) %5, i8 noundef signext 46, i64 noundef 0) #20
  %.not = icmp eq i64 %6, -1
  br i1 %.not, label %7, label %._crit_edge

7:                                                ; preds = %.lr.ph
  %8 = tail call noundef i64 @_ZNKSt7__cxx1112basic_stringIcSt11char_traitsIcESaIcEE4findEPKcm(ptr noundef nonnull align 8 dereferenceable(32) %5, ptr noundef nonnull @.str.6, i64 noundef 0) #20
  %.not6 = icmp eq i64 %8, -1
  br i1 %.not6, label %9, label %._crit_edge

9:                                                ; preds = %7
  %10 = tail call noundef ptr @_ZSt18_Rb_tree_incrementPKSt18_Rb_tree_node_base(ptr noundef %.sroa.07.010) #21
  %.not16 = icmp eq ptr %10, %4
  br i1 %.not16, label %._crit_edge, label %.lr.ph

._crit_edge:                                      ; preds = %7, %.lr.ph, %9, %1
  %.lcssa = phi i1 [ false, %1 ], [ false, %9 ], [ true, %.lr.ph ], [ true, %7 ]
  ret i1 %.lcssa
}